target datalayout = "e-m:e-p270:32:32-p271:32:32-p272:64:64-i64:64-i128:128-f80:128-n8:16:32:64-S128"
target triple = "x86_64-pc-linux-gnu"

%struct.darktable_t = type { %struct.dt_codepath_t, i32, i32, ptr, ptr, ptr, ptr, ptr, ptr, ptr, ptr, ptr, ptr, ptr, ptr, ptr, ptr, ptr, ptr, ptr, ptr, ptr, ptr, ptr, ptr, ptr, ptr, ptr, ptr, ptr, [64 x %struct.dt_pthread_mutex_t], %struct.dt_pthread_mutex_t, %struct.dt_pthread_mutex_t, %struct.dt_pthread_mutex_t, %struct.dt_pthread_mutex_t, %struct.dt_pthread_mutex_t, ptr, ptr, ptr, ptr, ptr, ptr, ptr, ptr, ptr, ptr, ptr, ptr, ptr, %struct.dt_lua_state_t, ptr, double, ptr, i32, [47 x i32], i32, i32, ptr, ptr, %struct.dt_sys_resources_t, %struct.dt_backthumb_t, %struct.dt_gimp_t }
%struct.dt_codepath_t = type { i8, [3 x i8] }
%struct.dt_pthread_mutex_t = type { %union.pthread_mutex_t }
%union.pthread_mutex_t = type { %struct.__pthread_mutex_s }
%struct.__pthread_mutex_s = type { i32, i32, i32, i32, i32, i16, i16, %struct.__pthread_internal_list }
%struct.__pthread_internal_list = type { ptr, ptr }
%struct.dt_lua_state_t = type { i32 }
%struct.dt_sys_resources_t = type { i64, i64, ptr, ptr, i32 }
%struct.dt_backthumb_t = type { double, double, i32, i32, i32, i32 }
%struct.dt_gimp_t = type { i32, ptr, ptr, i32, i32 }
%struct.dt_gui_gtk_t = type { ptr, %struct.dt_gui_widgets_t, %struct.dt_gui_scrollbars_t, i32, ptr, i32, [39 x %struct._GdkRGBA], i32, i32, i32, i32, i32, double, double, double, double, ptr, double, double, double, double, i32, i32, [4096 x i8], i32, i32, i32, %struct.dt_pthread_mutex_t }
%struct.dt_gui_widgets_t = type { ptr, ptr, ptr, ptr, i32, i32, i32 }
%struct.dt_gui_scrollbars_t = type { ptr, ptr, i32 }
%struct._GdkRGBA = type { double, double, double, double }
%struct._dt_delete_modal_dialog_t = type { i32, ptr, ptr, i32, %struct.dt_pthread_mutex_t, %union.pthread_cond_t }
%union.pthread_cond_t = type { %struct.__pthread_cond_s }
%struct.__pthread_cond_s = type { %union.__atomic_wide_counter, %union.__atomic_wide_counter, [2 x i32], [2 x i32], i32, i32, [2 x i32] }
%union.__atomic_wide_counter = type { i64 }

@darktable = external global %struct.darktable_t, align 8
@.str.98 = private unnamed_addr constant [1 x i8] zeroinitializer, align 1
@.str.111 = private unnamed_addr constant [96 x i8] c"could not send %s to trash%s\0A%s\0A\0A do you want to delete the file from disk without using trash?\00", align 1
@.str.112 = private unnamed_addr constant [35 x i8] c"could not delete from disk %s%s\0A%s\00", align 1
@.str.113 = private unnamed_addr constant [3 x i8] c": \00", align 1
@.str.114 = private unnamed_addr constant [14 x i8] c"_apply to all\00", align 1
@.str.115 = private unnamed_addr constant [20 x i8] c"_delete permanently\00", align 1
@.str.116 = private unnamed_addr constant [21 x i8] c"_remove from library\00", align 1
@.str.117 = private unnamed_addr constant [6 x i8] c"_skip\00", align 1
@.str.118 = private unnamed_addr constant [6 x i8] c"abort\00", align 1
@.str.119 = private unnamed_addr constant [15 x i8] c"trashing error\00", align 1
@.str.120 = private unnamed_addr constant [15 x i8] c"deletion error\00", align 1

; Function Attrs: inlinehint nounwind uwtable
define internal i32 @dt_pthread_mutex_unlock(ptr noundef %0) #5 {
  %2 = alloca ptr, align 8
  store ptr %0, ptr %2, align 8, !tbaa !281
  %3 = load ptr, ptr %2, align 8, !tbaa !281
  %4 = getelementptr inbounds nuw %struct.dt_pthread_mutex_t, ptr %3, i32 0, i32 0
  %5 = call i32 @pthread_mutex_unlock(ptr noundef %4) #14
  ret i32 %5
}

; Function Attrs: inlinehint nounwind uwtable
define internal i32 @dt_pthread_mutex_lock(ptr noundef %0) #5 {
  %2 = alloca ptr, align 8
  store ptr %0, ptr %2, align 8, !tbaa !281
  %3 = load ptr, ptr %2, align 8, !tbaa !281
  %4 = getelementptr inbounds nuw %struct.dt_pthread_mutex_t, ptr %3, i32 0, i32 0
  %5 = call i32 @pthread_mutex_lock(ptr noundef %4) #14
  ret i32 %5
}

; Function Attrs: nounwind uwtable
define internal i32 @_dt_delete_dialog_main_thread(ptr noundef %0) #0 {
  %2 = alloca ptr, align 8
  %3 = alloca ptr, align 8
  %4 = alloca ptr, align 8
  %5 = alloca ptr, align 8
  %6 = alloca ptr, align 8
  store ptr %0, ptr %2, align 8, !tbaa !6
  call void @llvm.lifetime.start.p0(i64 8, ptr %3) #14
  %7 = load ptr, ptr %2, align 8, !tbaa !6
  store ptr %7, ptr %3, align 8, !tbaa !283
  %8 = load ptr, ptr %3, align 8, !tbaa !283
  %9 = getelementptr inbounds nuw %struct._dt_delete_modal_dialog_t, ptr %8, i32 0, i32 4
  %10 = call i32 @dt_pthread_mutex_lock(ptr noundef %9)
  call void @llvm.lifetime.start.p0(i64 8, ptr %4) #14
  %11 = load ptr, ptr getelementptr inbounds nuw (%struct.darktable_t, ptr @darktable, i32 0, i32 14), align 8, !tbaa !99
  %12 = getelementptr inbounds nuw %struct.dt_gui_gtk_t, ptr %11, i32 0, i32 0
  %13 = load ptr, ptr %12, align 8, !tbaa !100
  %14 = call ptr @dt_ui_main_window(ptr noundef %13)
  %15 = call i64 @gtk_window_get_type() #16
  %16 = call ptr @g_type_check_instance_cast(ptr noundef %14, i64 noundef %15)
  %17 = load ptr, ptr %3, align 8, !tbaa !283
  %18 = getelementptr inbounds nuw %struct._dt_delete_modal_dialog_t, ptr %17, i32 0, i32 0
  %19 = load i32, ptr %18, align 8, !tbaa !276
  %20 = icmp ne i32 %19, 0
  br i1 %20, label %21, label %23

21:                                               ; preds = %1
  %22 = call ptr @dcgettext(ptr noundef null, ptr noundef @.str.111, i32 noundef 5) #14
  br label %25

23:                                               ; preds = %1
  %24 = call ptr @dcgettext(ptr noundef null, ptr noundef @.str.112, i32 noundef 5) #14
  br label %25

25:                                               ; preds = %23, %21
  %26 = phi ptr [ %22, %21 ], [ %24, %23 ]
  %27 = load ptr, ptr %3, align 8, !tbaa !283
  %28 = getelementptr inbounds nuw %struct._dt_delete_modal_dialog_t, ptr %27, i32 0, i32 1
  %29 = load ptr, ptr %28, align 8, !tbaa !278
  %30 = load ptr, ptr %3, align 8, !tbaa !283
  %31 = getelementptr inbounds nuw %struct._dt_delete_modal_dialog_t, ptr %30, i32 0, i32 2
  %32 = load ptr, ptr %31, align 8, !tbaa !279
  %33 = icmp ne ptr %32, null
  %34 = select i1 %33, ptr @.str.113, ptr @.str.98
  %35 = load ptr, ptr %3, align 8, !tbaa !283
  %36 = getelementptr inbounds nuw %struct._dt_delete_modal_dialog_t, ptr %35, i32 0, i32 2
  %37 = load ptr, ptr %36, align 8, !tbaa !279
  %38 = icmp ne ptr %37, null
  br i1 %38, label %39, label %43

39:                                               ; preds = %25
  %40 = load ptr, ptr %3, align 8, !tbaa !283
  %41 = getelementptr inbounds nuw %struct._dt_delete_modal_dialog_t, ptr %40, i32 0, i32 2
  %42 = load ptr, ptr %41, align 8, !tbaa !279
  br label %44

43:                                               ; preds = %25
  br label %44

44:                                               ; preds = %43, %39
  %45 = phi ptr [ %42, %39 ], [ @.str.98, %43 ]
  %46 = call ptr (ptr, i32, i32, i32, ptr, ...) @gtk_message_dialog_new(ptr noundef %16, i32 noundef 2, i32 noundef 2, i32 noundef 0, ptr noundef %26, ptr noundef %29, ptr noundef %34, ptr noundef %45)
  store ptr %46, ptr %4, align 8, !tbaa !106
  call void @llvm.lifetime.start.p0(i64 8, ptr %5) #14
  %47 = call ptr @dcgettext(ptr noundef null, ptr noundef @.str.114, i32 noundef 5) #14
  %48 = call ptr @gtk_check_button_new_with_mnemonic(ptr noundef %47)
  store ptr %48, ptr %5, align 8, !tbaa !106
  call void @llvm.lifetime.start.p0(i64 8, ptr %6) #14
  %49 = load ptr, ptr %4, align 8, !tbaa !106
  %50 = call i64 @gtk_message_dialog_get_type() #16
  %51 = call ptr @g_type_check_instance_cast(ptr noundef %49, i64 noundef %50)
  %52 = call ptr @gtk_message_dialog_get_message_area(ptr noundef %51)
  store ptr %52, ptr %6, align 8, !tbaa !106
  %53 = load ptr, ptr %6, align 8, !tbaa !106
  call void @gtk_widget_set_halign(ptr noundef %53, i32 noundef 3)
  %54 = load ptr, ptr %6, align 8, !tbaa !106
  %55 = call i64 @gtk_container_get_type() #16
  %56 = call ptr @g_type_check_instance_cast(ptr noundef %54, i64 noundef %55)
  %57 = load ptr, ptr %5, align 8, !tbaa !106
  call void @gtk_container_add(ptr noundef %56, ptr noundef %57)
  %58 = load ptr, ptr %5, align 8, !tbaa !106
  call void @gtk_widget_show(ptr noundef %58)
  %59 = load ptr, ptr %3, align 8, !tbaa !283
  %60 = getelementptr inbounds nuw %struct._dt_delete_modal_dialog_t, ptr %59, i32 0, i32 0
  %61 = load i32, ptr %60, align 8, !tbaa !276
  %62 = icmp ne i32 %61, 0
  br i1 %62, label %63, label %74

63:                                               ; preds = %44
  %64 = load ptr, ptr %4, align 8, !tbaa !106
  %65 = call i64 @gtk_dialog_get_type() #16
  %66 = call ptr @g_type_check_instance_cast(ptr noundef %64, i64 noundef %65)
  %67 = call ptr @dcgettext(ptr noundef null, ptr noundef @.str.115, i32 noundef 5) #14
  %68 = call ptr @gtk_dialog_add_button(ptr noundef %66, ptr noundef %67, i32 noundef 1)
  %69 = load ptr, ptr %4, align 8, !tbaa !106
  %70 = call i64 @gtk_dialog_get_type() #16
  %71 = call ptr @g_type_check_instance_cast(ptr noundef %69, i64 noundef %70)
  %72 = call ptr @dcgettext(ptr noundef null, ptr noundef @.str.116, i32 noundef 5) #14
  %73 = call ptr @gtk_dialog_add_button(ptr noundef %71, ptr noundef %72, i32 noundef 2)
  br label %80

74:                                               ; preds = %44
  %75 = load ptr, ptr %4, align 8, !tbaa !106
  %76 = call i64 @gtk_dialog_get_type() #16
  %77 = call ptr @g_type_check_instance_cast(ptr noundef %75, i64 noundef %76)
  %78 = call ptr @dcgettext(ptr noundef null, ptr noundef @.str.116, i32 noundef 5) #14
  %79 = call ptr @gtk_dialog_add_button(ptr noundef %77, ptr noundef %78, i32 noundef 2)
  br label %80

80:                                               ; preds = %74, %63
  %81 = load ptr, ptr %4, align 8, !tbaa !106
  %82 = call i64 @gtk_dialog_get_type() #16
  %83 = call ptr @g_type_check_instance_cast(ptr noundef %81, i64 noundef %82)
  %84 = call ptr @dcgettext(ptr noundef null, ptr noundef @.str.117, i32 noundef 5) #14
  %85 = call ptr @gtk_dialog_add_button(ptr noundef %83, ptr noundef %84, i32 noundef 4)
  %86 = load ptr, ptr %4, align 8, !tbaa !106
  %87 = call i64 @gtk_dialog_get_type() #16
  %88 = call ptr @g_type_check_instance_cast(ptr noundef %86, i64 noundef %87)
  %89 = call ptr @dcgettext(ptr noundef null, ptr noundef @.str.118, i32 noundef 5) #14
  %90 = call ptr @gtk_dialog_add_button(ptr noundef %88, ptr noundef %89, i32 noundef 8)
  %91 = load ptr, ptr %4, align 8, !tbaa !106
  %92 = call i64 @gtk_dialog_get_type() #16
  %93 = call ptr @g_type_check_instance_cast(ptr noundef %91, i64 noundef %92)
  call void @gtk_dialog_set_default_response(ptr noundef %93, i32 noundef 8)
  %94 = load ptr, ptr %4, align 8, !tbaa !106
  %95 = call i64 @gtk_window_get_type() #16
  %96 = call ptr @g_type_check_instance_cast(ptr noundef %94, i64 noundef %95)
  %97 = load ptr, ptr %3, align 8, !tbaa !283
  %98 = getelementptr inbounds nuw %struct._dt_delete_modal_dialog_t, ptr %97, i32 0, i32 0
  %99 = load i32, ptr %98, align 8, !tbaa !276
  %100 = icmp ne i32 %99, 0
  br i1 %100, label %101, label %103

101:                                              ; preds = %80
  %102 = call ptr @dcgettext(ptr noundef null, ptr noundef @.str.119, i32 noundef 5) #14
  br label %105

103:                                              ; preds = %80
  %104 = call ptr @dcgettext(ptr noundef null, ptr noundef @.str.120, i32 noundef 5) #14
  br label %105

105:                                              ; preds = %103, %101
  %106 = phi ptr [ %102, %101 ], [ %104, %103 ]
  call void @gtk_window_set_title(ptr noundef %96, ptr noundef %106)
  %107 = load ptr, ptr %4, align 8, !tbaa !106
  %108 = call i64 @gtk_dialog_get_type() #16
  %109 = call ptr @g_type_check_instance_cast(ptr noundef %107, i64 noundef %108)
  %110 = call i32 @gtk_dialog_run(ptr noundef %109)
  %111 = load ptr, ptr %3, align 8, !tbaa !283
  %112 = getelementptr inbounds nuw %struct._dt_delete_modal_dialog_t, ptr %111, i32 0, i32 3
  store i32 %110, ptr %112, align 8, !tbaa !280
  %113 = load ptr, ptr %3, align 8, !tbaa !283
  %114 = getelementptr inbounds nuw %struct._dt_delete_modal_dialog_t, ptr %113, i32 0, i32 0
  %115 = load i32, ptr %114, align 8, !tbaa !276
  %116 = icmp ne i32 %115, 0
  br i1 %116, label %122, label %117

117:                                              ; preds = %105
  %118 = load ptr, ptr %3, align 8, !tbaa !283
  %119 = getelementptr inbounds nuw %struct._dt_delete_modal_dialog_t, ptr %118, i32 0, i32 3
  %120 = load i32, ptr %119, align 8, !tbaa !280
  %121 = or i32 %120, 16
  store i32 %121, ptr %119, align 8, !tbaa !280
  br label %122

122:                                              ; preds = %117, %105
  %123 = load ptr, ptr %5, align 8, !tbaa !106
  %124 = call i64 @gtk_toggle_button_get_type() #16
  %125 = call ptr @g_type_check_instance_cast(ptr noundef %123, i64 noundef %124)
  %126 = call i32 @gtk_toggle_button_get_active(ptr noundef %125)
  %127 = icmp ne i32 %126, 0
  br i1 %127, label %128, label %133

128:                                              ; preds = %122
  %129 = load ptr, ptr %3, align 8, !tbaa !283
  %130 = getelementptr inbounds nuw %struct._dt_delete_modal_dialog_t, ptr %129, i32 0, i32 3
  %131 = load i32, ptr %130, align 8, !tbaa !280
  %132 = or i32 %131, 32
  store i32 %132, ptr %130, align 8, !tbaa !280
  br label %133

133:                                              ; preds = %128, %122
  %134 = load ptr, ptr %4, align 8, !tbaa !106
  call void @gtk_widget_destroy(ptr noundef %134)
  %135 = load ptr, ptr %3, align 8, !tbaa !283
  %136 = getelementptr inbounds nuw %struct._dt_delete_modal_dialog_t, ptr %135, i32 0, i32 5
  %137 = call i32 @pthread_cond_signal(ptr noundef %136) #14
  %138 = load ptr, ptr %3, align 8, !tbaa !283
  %139 = getelementptr inbounds nuw %struct._dt_delete_modal_dialog_t, ptr %138, i32 0, i32 4
  %140 = call i32 @dt_pthread_mutex_unlock(ptr noundef %139)
  call void @llvm.lifetime.end.p0(i64 8, ptr %6) #14
  call void @llvm.lifetime.end.p0(i64 8, ptr %5) #14
  call void @llvm.lifetime.end.p0(i64 8, ptr %4) #14
  call void @llvm.lifetime.end.p0(i64 8, ptr %3) #14
  ret i32 0
}