; Function Attrs: nounwind uwtable
define internal noundef i32 @_dt_delete_dialog_main_thread(ptr noundef %0) #0 {
  %2 = getelementptr inbounds nuw i8, ptr %0, i64 32
  %3 = tail call i32 @pthread_mutex_lock(ptr noundef nonnull %2) #17
  %4 = load ptr, ptr getelementptr inbounds nuw (i8, ptr @darktable, i64 104), align 8, !tbaa !92
  %5 = load ptr, ptr %4, align 8, !tbaa !93
  %6 = tail call ptr @dt_ui_main_window(ptr noundef %5) #17
  %7 = tail call i64 @gtk_window_get_type() #21
  %8 = tail call ptr @g_type_check_instance_cast(ptr noundef %6, i64 noundef %7) #17
  %9 = load i32, ptr %0, align 8, !tbaa !228
  %.not = icmp eq i32 %9, 0
  %.str.112..str.111 = select i1 %.not, ptr @.str.112, ptr @.str.111
  %10 = tail call ptr @dcgettext(ptr noundef null, ptr noundef nonnull %.str.112..str.111, i32 noundef 5) #17
  %11 = getelementptr inbounds nuw i8, ptr %0, i64 8
  %12 = load ptr, ptr %11, align 8, !tbaa !230
  %13 = getelementptr inbounds nuw i8, ptr %0, i64 16
  %14 = load ptr, ptr %13, align 8, !tbaa !231
  %.not30 = icmp eq ptr %14, null
  %15 = select i1 %.not30, ptr @.str.98, ptr @.str.113
  %spec.select = select i1 %.not30, ptr @.str.98, ptr %14
  %16 = tail call ptr (ptr, i32, i32, i32, ptr, ...) @gtk_message_dialog_new(ptr noundef %8, i32 noundef 2, i32 noundef 2, i32 noundef 0, ptr noundef %10, ptr noundef %12, ptr noundef nonnull %15, ptr noundef nonnull %spec.select) #17
  %17 = tail call ptr @dcgettext(ptr noundef null, ptr noundef nonnull @.str.114, i32 noundef 5) #17
  %18 = tail call ptr @gtk_check_button_new_with_mnemonic(ptr noundef %17) #17
  %19 = tail call i64 @gtk_message_dialog_get_type() #21
  %20 = tail call ptr @g_type_check_instance_cast(ptr noundef %16, i64 noundef %19) #17
  %21 = tail call ptr @gtk_message_dialog_get_message_area(ptr noundef %20) #17
  tail call void @gtk_widget_set_halign(ptr noundef %21, i32 noundef 3) #17
  %22 = tail call i64 @gtk_container_get_type() #21
  %23 = tail call ptr @g_type_check_instance_cast(ptr noundef %21, i64 noundef %22) #17
  tail call void @gtk_container_add(ptr noundef %23, ptr noundef %18) #17
  tail call void @gtk_widget_show(ptr noundef %18) #17
  %24 = load i32, ptr %0, align 8, !tbaa !228
  %.not31 = icmp eq i32 %24, 0
  %25 = tail call i64 @gtk_dialog_get_type() #21
  br i1 %.not31, label %30, label %26

26:                                               ; preds = %1
  %27 = tail call ptr @g_type_check_instance_cast(ptr noundef %16, i64 noundef %25) #17
  %28 = tail call ptr @dcgettext(ptr noundef null, ptr noundef nonnull @.str.115, i32 noundef 5) #17
  %29 = tail call ptr @gtk_dialog_add_button(ptr noundef %27, ptr noundef %28, i32 noundef 1) #17
  br label %30

30:                                               ; preds = %1, %26
  %31 = tail call ptr @g_type_check_instance_cast(ptr noundef %16, i64 noundef %25) #17
  %32 = tail call ptr @dcgettext(ptr noundef null, ptr noundef nonnull @.str.116, i32 noundef 5) #17
  %33 = tail call ptr @gtk_dialog_add_button(ptr noundef %31, ptr noundef %32, i32 noundef 2) #17
  %34 = tail call ptr @g_type_check_instance_cast(ptr noundef %16, i64 noundef %25) #17
  %35 = tail call ptr @dcgettext(ptr noundef null, ptr noundef nonnull @.str.117, i32 noundef 5) #17
  %36 = tail call ptr @gtk_dialog_add_button(ptr noundef %34, ptr noundef %35, i32 noundef 4) #17
  %37 = tail call ptr @g_type_check_instance_cast(ptr noundef %16, i64 noundef %25) #17
  %38 = tail call ptr @dcgettext(ptr noundef null, ptr noundef nonnull @.str.118, i32 noundef 5) #17
  %39 = tail call ptr @gtk_dialog_add_button(ptr noundef %37, ptr noundef %38, i32 noundef 8) #17
  %40 = tail call ptr @g_type_check_instance_cast(ptr noundef %16, i64 noundef %25) #17
  tail call void @gtk_dialog_set_default_response(ptr noundef %40, i32 noundef 8) #17
  %41 = tail call ptr @g_type_check_instance_cast(ptr noundef %16, i64 noundef %7) #17
  %42 = load i32, ptr %0, align 8, !tbaa !228
  %.not32 = icmp eq i32 %42, 0
  %.str.120..str.119 = select i1 %.not32, ptr @.str.120, ptr @.str.119
  %43 = tail call ptr @dcgettext(ptr noundef null, ptr noundef nonnull %.str.120..str.119, i32 noundef 5) #17
  tail call void @gtk_window_set_title(ptr noundef %41, ptr noundef %43) #17
  %44 = tail call ptr @g_type_check_instance_cast(ptr noundef %16, i64 noundef %25) #17
  %45 = tail call i32 @gtk_dialog_run(ptr noundef %44) #17
  %46 = getelementptr inbounds nuw i8, ptr %0, i64 24
  store i32 %45, ptr %46, align 8, !tbaa !232
  %47 = load i32, ptr %0, align 8, !tbaa !228
  %.not33 = icmp eq i32 %47, 0
  br i1 %.not33, label %48, label %50

48:                                               ; preds = %30
  %49 = or i32 %45, 16
  store i32 %49, ptr %46, align 8, !tbaa !232
  br label %50

50:                                               ; preds = %48, %30
  %51 = tail call i64 @gtk_toggle_button_get_type() #21
  %52 = tail call ptr @g_type_check_instance_cast(ptr noundef %18, i64 noundef %51) #17
  %53 = tail call i32 @gtk_toggle_button_get_active(ptr noundef %52) #17
  %.not34 = icmp eq i32 %53, 0
  br i1 %.not34, label %57, label %54

54:                                               ; preds = %50
  %55 = load i32, ptr %46, align 8, !tbaa !232
  %56 = or i32 %55, 32
  store i32 %56, ptr %46, align 8, !tbaa !232
  br label %57

57:                                               ; preds = %54, %50
  tail call void @gtk_widget_destroy(ptr noundef %16) #17
  %58 = getelementptr inbounds nuw i8, ptr %0, i64 72
  %59 = tail call i32 @pthread_cond_signal(ptr noundef nonnull %58) #17
  %60 = tail call i32 @pthread_mutex_unlock(ptr noundef nonnull %2) #17
  ret i32 0
}